target datalayout = "e-m:e-p270:32:32-p271:32:32-p272:64:64-i64:64-i128:128-f80:128-n8:16:32:64-S128"
target triple = "x86_64-unknown-linux-gnu"

%"class.proxygen::AsyncTimeoutSet::Callback" = type { ptr, %"class.std::shared_ptr", ptr, ptr, ptr, %"class.std::chrono::duration" }
%"class.std::shared_ptr" = type { %"class.std::__shared_ptr" }
%"class.std::__shared_ptr" = type { ptr, %"class.std::__shared_count" }
%"class.std::__shared_count" = type { ptr }
%"class.std::chrono::duration" = type { i64 }
%"class.proxygen::AsyncTimeoutSet" = type <{ %"class.folly::AsyncTimeout", %"class.folly::DelayedDestruction.base", [3 x i8], ptr, ptr, ptr, %"class.std::chrono::duration", %"class.std::chrono::duration", i8, [7 x i8] }>
%"class.folly::AsyncTimeout" = type { ptr, %"class.folly::EventBaseEvent", ptr, %"class.std::shared_ptr" }
%"class.folly::EventBaseEvent" = type { %struct.event, ptr, ptr, ptr, %"struct.folly::EventCallback" }
%struct.event = type { %struct.event_callback, %union.anon.0, i32, i16, i16, ptr, %union.anon.2, %struct.timeval }
%struct.event_callback = type { %struct.anon, i16, i8, i8, %union.anon, ptr }
%struct.anon = type { ptr, ptr }
%union.anon = type { ptr }
%union.anon.0 = type { %struct.anon.1 }
%struct.anon.1 = type { ptr, ptr }
%union.anon.2 = type { %struct.anon.3 }
%struct.anon.3 = type { %struct.anon.4, %struct.timeval }
%struct.anon.4 = type { ptr, ptr }
%struct.timeval = type { i64, i64 }
%"struct.folly::EventCallback" = type { i32, %union.anon.7 }
%union.anon.7 = type { ptr }
%"class.folly::DelayedDestruction.base" = type { %"class.folly::DelayedDestructionBase.base", i8 }
%"class.folly::DelayedDestructionBase.base" = type <{ ptr, i32 }>

; Function Attrs: mustprogress nounwind uwtable
define linkonce_odr void @_ZNSt6chrono8durationIlSt5ratioILl1ELl1000EEEC2IlvEERKT_(ptr noundef nonnull align 8 dereferenceable(8) %this, ptr noundef nonnull align 8 dereferenceable(8) %__rep) unnamed_addr #2 comdat align 2 {
entry:
  %this.addr = alloca ptr, align 8
  %__rep.addr = alloca ptr, align 8
  store ptr %this, ptr %this.addr, align 8
  store ptr %__rep, ptr %__rep.addr, align 8
  %this1 = load ptr, ptr %this.addr, align 8
  %__r = getelementptr inbounds %"class.std::chrono::duration", ptr %this1, i32 0, i32 0
  %0 = load ptr, ptr %__rep.addr, align 8
  %1 = load i64, ptr %0, align 8
  store i64 %1, ptr %__r, align 8
  ret void
}

; Function Attrs: mustprogress nounwind uwtable
define linkonce_odr noundef i64 @_ZNKSt6chrono8durationIlSt5ratioILl1ELl1000EEE5countEv(ptr noundef nonnull align 8 dereferenceable(8) %this) #2 comdat align 2 {
entry:
  %this.addr = alloca ptr, align 8
  store ptr %this, ptr %this.addr, align 8
  %this1 = load ptr, ptr %this.addr, align 8
  %__r = getelementptr inbounds %"class.std::chrono::duration", ptr %this1, i32 0, i32 0
  %0 = load i64, ptr %__r, align 8
  ret i64 %0
}

; Function Attrs: mustprogress uwtable
define linkonce_odr i64 @_ZNSt6chronoplIlSt5ratioILl1ELl1000EElS2_EENSt11common_typeIJNS_8durationIT_T0_EENS4_IT1_T2_EEEE4typeERKS7_RKSA_(ptr noundef nonnull align 8 dereferenceable(8) %__lhs, ptr noundef nonnull align 8 dereferenceable(8) %__rhs) #0 comdat {
entry:
  %retval = alloca %"class.std::chrono::duration", align 8
  %__lhs.addr = alloca ptr, align 8
  %__rhs.addr = alloca ptr, align 8
  %ref.tmp = alloca i64, align 8
  %ref.tmp1 = alloca %"class.std::chrono::duration", align 8
  %ref.tmp2 = alloca %"class.std::chrono::duration", align 8
  store ptr %__lhs, ptr %__lhs.addr, align 8
  store ptr %__rhs, ptr %__rhs.addr, align 8
  %0 = load ptr, ptr %__lhs.addr, align 8
  call void @llvm.memcpy.p0.p0.i64(ptr align 8 %ref.tmp1, ptr align 8 %0, i64 8, i1 false)
  %call = call noundef i64 @_ZNKSt6chrono8durationIlSt5ratioILl1ELl1000EEE5countEv(ptr noundef nonnull align 8 dereferenceable(8) %ref.tmp1)
  %1 = load ptr, ptr %__rhs.addr, align 8
  call void @llvm.memcpy.p0.p0.i64(ptr align 8 %ref.tmp2, ptr align 8 %1, i64 8, i1 false)
  %call3 = call noundef i64 @_ZNKSt6chrono8durationIlSt5ratioILl1ELl1000EEE5countEv(ptr noundef nonnull align 8 dereferenceable(8) %ref.tmp2)
  %add = add nsw i64 %call, %call3
  store i64 %add, ptr %ref.tmp, align 8
  call void @_ZNSt6chrono8durationIlSt5ratioILl1ELl1000EEEC2IlvEERKT_(ptr noundef nonnull align 8 dereferenceable(8) %retval, ptr noundef nonnull align 8 dereferenceable(8) %ref.tmp)
  %coerce.dive = getelementptr inbounds %"class.std::chrono::duration", ptr %retval, i32 0, i32 0
  %2 = load i64, ptr %coerce.dive, align 8
  ret i64 %2
}

; Function Attrs: mustprogress nounwind uwtable
define linkonce_odr i64 @_ZNK8proxygen15AsyncTimeoutSet11getIntervalEv(ptr noundef nonnull align 8 dereferenceable(249) %this) #2 comdat align 2 {
entry:
  %retval = alloca %"class.std::chrono::duration", align 8
  %this.addr = alloca ptr, align 8
  store ptr %this, ptr %this.addr, align 8
  %this1 = load ptr, ptr %this.addr, align 8
  %interval_ = getelementptr inbounds %"class.proxygen::AsyncTimeoutSet", ptr %this1, i32 0, i32 6
  call void @llvm.memcpy.p0.p0.i64(ptr align 8 %retval, ptr align 8 %interval_, i64 8, i1 false)
  %coerce.dive = getelementptr inbounds %"class.std::chrono::duration", ptr %retval, i32 0, i32 0
  %0 = load i64, ptr %coerce.dive, align 8
  ret i64 %0
}

; Function Attrs: mustprogress uwtable
define void @_ZN8proxygen15AsyncTimeoutSet8Callback12setScheduledEPS0_PS1_(ptr noundef nonnull align 8 dereferenceable(56) %this, ptr noundef %timeoutSet, ptr noundef %prev) #0 align 2 {
entry:
  %this.addr = alloca ptr, align 8
  %timeoutSet.addr = alloca ptr, align 8
  %prev.addr = alloca ptr, align 8
  %ref.tmp = alloca %"class.std::chrono::duration", align 8
  %ref.tmp2 = alloca %"class.std::chrono::duration", align 8
  %ref.tmp3 = alloca %"class.std::chrono::duration", align 8
  store ptr %this, ptr %this.addr, align 8
  store ptr %timeoutSet, ptr %timeoutSet.addr, align 8
  store ptr %prev, ptr %prev.addr, align 8
  %this1 = load ptr, ptr %this.addr, align 8
  %0 = load ptr, ptr %timeoutSet.addr, align 8
  %timeoutSet_ = getelementptr inbounds %"class.proxygen::AsyncTimeoutSet::Callback", ptr %this1, i32 0, i32 2
  store ptr %0, ptr %timeoutSet_, align 8
  %1 = load ptr, ptr %prev.addr, align 8
  %prev_ = getelementptr inbounds %"class.proxygen::AsyncTimeoutSet::Callback", ptr %this1, i32 0, i32 3
  store ptr %1, ptr %prev_, align 8
  %next_ = getelementptr inbounds %"class.proxygen::AsyncTimeoutSet::Callback", ptr %this1, i32 0, i32 4
  store ptr null, ptr %next_, align 8
  %2 = load ptr, ptr %timeoutSet.addr, align 8
  %timeoutClock_ = getelementptr inbounds %"class.proxygen::AsyncTimeoutSet", ptr %2, i32 0, i32 3
  %3 = load ptr, ptr %timeoutClock_, align 8
  %vtable = load ptr, ptr %3, align 8
  %vfn = getelementptr inbounds ptr, ptr %vtable, i64 2
  %4 = load ptr, ptr %vfn, align 8
  %call = call i64 %4(ptr noundef nonnull align 8 dereferenceable(8) %3)
  %coerce.dive = getelementptr inbounds %"class.std::chrono::duration", ptr %ref.tmp2, i32 0, i32 0
  store i64 %call, ptr %coerce.dive, align 8
  %timeoutSet_4 = getelementptr inbounds %"class.proxygen::AsyncTimeoutSet::Callback", ptr %this1, i32 0, i32 2
  %5 = load ptr, ptr %timeoutSet_4, align 8
  %call5 = call i64 @_ZNK8proxygen15AsyncTimeoutSet11getIntervalEv(ptr noundef nonnull align 8 dereferenceable(249) %5)
  %coerce.dive6 = getelementptr inbounds %"class.std::chrono::duration", ptr %ref.tmp3, i32 0, i32 0
  store i64 %call5, ptr %coerce.dive6, align 8
  %call7 = call i64 @_ZNSt6chronoplIlSt5ratioILl1ELl1000EElS2_EENSt11common_typeIJNS_8durationIT_T0_EENS4_IT1_T2_EEEE4typeERKS7_RKSA_(ptr noundef nonnull align 8 dereferenceable(8) %ref.tmp2, ptr noundef nonnull align 8 dereferenceable(8) %ref.tmp3)
  %coerce.dive8 = getelementptr inbounds %"class.std::chrono::duration", ptr %ref.tmp, i32 0, i32 0
  store i64 %call7, ptr %coerce.dive8, align 8
  %expiration_ = getelementptr inbounds %"class.proxygen::AsyncTimeoutSet::Callback", ptr %this1, i32 0, i32 5
  call void @llvm.memcpy.p0.p0.i64(ptr align 8 %expiration_, ptr align 8 %ref.tmp, i64 8, i1 false)
  ret void
}