; Function Attrs: mustprogress uwtable
define void @_ZN8proxygen15AsyncTimeoutSet8Callback12setScheduledEPS0_PS1_(ptr nocapture noundef nonnull align 8 dereferenceable(56) %this, ptr noundef %timeoutSet, ptr noundef %prev) local_unnamed_addr #6 align 2 {
entry:
  %timeoutSet_ = getelementptr inbounds i8, ptr %this, i64 24
  store ptr %timeoutSet, ptr %timeoutSet_, align 8
  %prev_ = getelementptr inbounds i8, ptr %this, i64 32
  store ptr %prev, ptr %prev_, align 8
  %next_ = getelementptr inbounds i8, ptr %this, i64 40
  store ptr null, ptr %next_, align 8
  %timeoutClock_ = getelementptr inbounds i8, ptr %timeoutSet, i64 208
  %0 = load ptr, ptr %timeoutClock_, align 8
  %vtable = load ptr, ptr %0, align 8
  %vfn = getelementptr inbounds i8, ptr %vtable, i64 16
  %1 = load ptr, ptr %vfn, align 8
  %call = tail call i64 %1(ptr noundef nonnull align 8 dereferenceable(8) %0)
  %2 = load ptr, ptr %timeoutSet_, align 8
  %interval_.i = getelementptr inbounds i8, ptr %2, i64 232
  %retval.sroa.0.0.copyload.i = load i64, ptr %interval_.i, align 8
  %add.i = add nsw i64 %retval.sroa.0.0.copyload.i, %call
  %expiration_ = getelementptr inbounds i8, ptr %this, i64 48
  store i64 %add.i, ptr %expiration_, align 8
  ret void
}